target datalayout = "e-m:e-p270:32:32-p271:32:32-p272:64:64-i64:64-i128:128-f80:128-n8:16:32:64-S128"
target triple = "x86_64-pc-linux-gnu"

%"struct.duckdb_brotli::HistogramLiteral" = type { [256 x i32], i64, double }

; Function Attrs: alwaysinline mustprogress nounwind uwtable
define internal void @_ZN13duckdb_brotliL28HistogramAddHistogramLiteralEPNS_16HistogramLiteralEPKS0_(ptr noundef %0, ptr noundef %1) #3 {
  %3 = alloca ptr, align 8
  %4 = alloca ptr, align 8
  %5 = alloca i64, align 8
  store ptr %0, ptr %3, align 8, !tbaa !3
  store ptr %1, ptr %4, align 8, !tbaa !3
  call void @llvm.lifetime.start.p0(i64 8, ptr %5) #9
  %6 = load ptr, ptr %4, align 8, !tbaa !3
  %7 = getelementptr inbounds nuw %"struct.duckdb_brotli::HistogramLiteral", ptr %6, i32 0, i32 1
  %8 = load i64, ptr %7, align 8, !tbaa !26
  %9 = load ptr, ptr %3, align 8, !tbaa !3
  %10 = getelementptr inbounds nuw %"struct.duckdb_brotli::HistogramLiteral", ptr %9, i32 0, i32 1
  %11 = load i64, ptr %10, align 8, !tbaa !26
  %12 = add i64 %11, %8
  store i64 %12, ptr %10, align 8, !tbaa !26
  store i64 0, ptr %5, align 8, !tbaa !12
  br label %13

13:                                               ; preds = %28, %2
  %14 = load i64, ptr %5, align 8, !tbaa !12
  %15 = icmp ult i64 %14, 256
  br i1 %15, label %16, label %31

16:                                               ; preds = %13
  %17 = load ptr, ptr %4, align 8, !tbaa !3
  %18 = getelementptr inbounds nuw %"struct.duckdb_brotli::HistogramLiteral", ptr %17, i32 0, i32 0
  %19 = load i64, ptr %5, align 8, !tbaa !12
  %20 = getelementptr inbounds nuw [256 x i32], ptr %18, i64 0, i64 %19
  %21 = load i32, ptr %20, align 4, !tbaa !10
  %22 = load ptr, ptr %3, align 8, !tbaa !3
  %23 = getelementptr inbounds nuw %"struct.duckdb_brotli::HistogramLiteral", ptr %22, i32 0, i32 0
  %24 = load i64, ptr %5, align 8, !tbaa !12
  %25 = getelementptr inbounds nuw [256 x i32], ptr %23, i64 0, i64 %24
  %26 = load i32, ptr %25, align 4, !tbaa !10
  %27 = add i32 %26, %21
  store i32 %27, ptr %25, align 4, !tbaa !10
  br label %28

28:                                               ; preds = %16
  %29 = load i64, ptr %5, align 8, !tbaa !12
  %30 = add i64 %29, 1
  store i64 %30, ptr %5, align 8, !tbaa !12
  br label %13, !llvm.loop !31

31:                                               ; preds = %13
  call void @llvm.lifetime.end.p0(i64 8, ptr %5) #9
  ret void
}

; Function Attrs: mustprogress uwtable
define noundef double @_ZN13duckdb_brotli37BrotliHistogramBitCostDistanceLiteralEPKNS_16HistogramLiteralES2_PS0_(ptr noundef %0, ptr noundef %1, ptr noundef %2) #0 {
  %4 = alloca double, align 8
  %5 = alloca ptr, align 8
  %6 = alloca ptr, align 8
  %7 = alloca ptr, align 8
  store ptr %0, ptr %5, align 8, !tbaa !3
  store ptr %1, ptr %6, align 8, !tbaa !3
  store ptr %2, ptr %7, align 8, !tbaa !3
  %8 = load ptr, ptr %5, align 8, !tbaa !3
  %9 = getelementptr inbounds nuw %"struct.duckdb_brotli::HistogramLiteral", ptr %8, i32 0, i32 1
  %10 = load i64, ptr %9, align 8, !tbaa !26
  %11 = icmp eq i64 %10, 0
  br i1 %11, label %12, label %13

12:                                               ; preds = %3
  store double 0.000000e+00, ptr %4, align 8
  br label %24

13:                                               ; preds = %3
  %14 = load ptr, ptr %5, align 8, !tbaa !3
  %15 = load ptr, ptr %7, align 8, !tbaa !3
  call void @llvm.memcpy.p0.p0.i64(ptr align 8 %15, ptr align 8 %14, i64 1040, i1 false), !tbaa.struct !28
  %16 = load ptr, ptr %7, align 8, !tbaa !3
  %17 = load ptr, ptr %6, align 8, !tbaa !3
  call void @_ZN13duckdb_brotliL28HistogramAddHistogramLiteralEPNS_16HistogramLiteralEPKS0_(ptr noundef %16, ptr noundef %17)
  %18 = load ptr, ptr %7, align 8, !tbaa !3
  %19 = call noundef double @_ZN13duckdb_brotli27BrotliPopulationCostLiteralEPKNS_16HistogramLiteralE(ptr noundef %18)
  %20 = load ptr, ptr %6, align 8, !tbaa !3
  %21 = getelementptr inbounds nuw %"struct.duckdb_brotli::HistogramLiteral", ptr %20, i32 0, i32 2
  %22 = load double, ptr %21, align 8, !tbaa !24
  %23 = fsub double %19, %22
  store double %23, ptr %4, align 8
  br label %24

24:                                               ; preds = %13, %12
  %25 = load double, ptr %4, align 8
  ret double %25
}